(ihotel
Hotel
p0
(dp1
S'property_details'
p2
S'n/a'
p3
sS'name'
p4
S'God of war'
p5
sS'area_details'
p6
S'n/a'
p7
sS'reservation_policy'
p8
S'n/a'
p9
sS'location'
p10
S'Varanasi'
p11
sS'_room_nos'
p12
(lp13
sS'_rooms'
p14
(lp15
sS'type'
p16
S'Hotel'
p17
sS'meal'
p18
S'free'
p19
sb.