(lp0
(iuser
user
p1
(dp2
S'password'
p3
S'good'
p4
sS'book'
p5
(lp6
(lp7
S'Reddison'
p8
aS'0'
p9
aS'2/2/2020'
p10
aS'4/2/2020'
p11
aa(lp12
S'Reddison'
p13
aS'2'
p14
aS'2/2/2020'
p15
aS'4/2/2020'
p16
aa(lp17
S'Reddison'
p18
aS'1'
p19
aS'13/4/2014'
p20
aS'15/4/2014'
p21
aasS'id'
p22
S'goodlike'
p23
sba.